target datalayout = "e-m:e-p270:32:32-p271:32:32-p272:64:64-i64:64-i128:128-f80:128-n8:16:32:64-S128"
target triple = "x86_64-pc-linux-gnu"

; Function Attrs: mustprogress nounwind uwtable
define internal void @_ZN4ncnnL17interpolate_cubicEfPf(float noundef nofpclass(nan inf) %0, ptr noundef %1) #3 {
  %3 = alloca float, align 4
  %4 = alloca ptr, align 8
  %5 = alloca float, align 4
  %6 = alloca float, align 4
  %7 = alloca float, align 4
  %8 = alloca float, align 4
  store float %0, ptr %3, align 4
  store ptr %1, ptr %4, align 8
  store float -7.500000e-01, ptr %5, align 4
  %9 = load float, ptr %3, align 4
  %10 = fadd fast float %9, 1.000000e+00
  store float %10, ptr %6, align 4
  %11 = load float, ptr %3, align 4
  store float %11, ptr %7, align 4
  %12 = load float, ptr %3, align 4
  %13 = fsub fast float 1.000000e+00, %12
  store float %13, ptr %8, align 4
  %14 = load float, ptr %6, align 4
  %15 = fmul fast float -7.500000e-01, %14
  %16 = load float, ptr %6, align 4
  %17 = fmul fast float %15, %16
  %18 = load float, ptr %6, align 4
  %19 = fmul fast float %17, %18
  %20 = load float, ptr %6, align 4
  %21 = fmul fast float -3.750000e+00, %20
  %22 = load float, ptr %6, align 4
  %23 = fmul fast float %21, %22
  %24 = fsub fast float %19, %23
  %25 = load float, ptr %6, align 4
  %26 = fmul fast float -6.000000e+00, %25
  %27 = fadd fast float %24, %26
  %28 = fsub fast float %27, -3.000000e+00
  %29 = load ptr, ptr %4, align 8
  %30 = getelementptr inbounds float, ptr %29, i64 0
  store float %28, ptr %30, align 4
  %31 = load float, ptr %7, align 4
  %32 = fmul fast float 1.250000e+00, %31
  %33 = load float, ptr %7, align 4
  %34 = fmul fast float %32, %33
  %35 = load float, ptr %7, align 4
  %36 = fmul fast float %34, %35
  %37 = load float, ptr %7, align 4
  %38 = fmul fast float 2.250000e+00, %37
  %39 = load float, ptr %7, align 4
  %40 = fmul fast float %38, %39
  %41 = fsub fast float %36, %40
  %42 = fadd fast float %41, 1.000000e+00
  %43 = load ptr, ptr %4, align 8
  %44 = getelementptr inbounds float, ptr %43, i64 1
  store float %42, ptr %44, align 4
  %45 = load float, ptr %8, align 4
  %46 = fmul fast float 1.250000e+00, %45
  %47 = load float, ptr %8, align 4
  %48 = fmul fast float %46, %47
  %49 = load float, ptr %8, align 4
  %50 = fmul fast float %48, %49
  %51 = load float, ptr %8, align 4
  %52 = fmul fast float 2.250000e+00, %51
  %53 = load float, ptr %8, align 4
  %54 = fmul fast float %52, %53
  %55 = fsub fast float %50, %54
  %56 = fadd fast float %55, 1.000000e+00
  %57 = load ptr, ptr %4, align 8
  %58 = getelementptr inbounds float, ptr %57, i64 2
  store float %56, ptr %58, align 4
  %59 = load ptr, ptr %4, align 8
  %60 = getelementptr inbounds float, ptr %59, i64 0
  %61 = load float, ptr %60, align 4
  %62 = fsub fast float 1.000000e+00, %61
  %63 = load ptr, ptr %4, align 8
  %64 = getelementptr inbounds float, ptr %63, i64 1
  %65 = load float, ptr %64, align 4
  %66 = fsub fast float %62, %65
  %67 = load ptr, ptr %4, align 8
  %68 = getelementptr inbounds float, ptr %67, i64 2
  %69 = load float, ptr %68, align 4
  %70 = fsub fast float %66, %69
  %71 = load ptr, ptr %4, align 8
  %72 = getelementptr inbounds float, ptr %71, i64 3
  store float %70, ptr %72, align 4
  ret void
}

; Function Attrs: mustprogress nounwind uwtable
define linkonce_odr noundef nofpclass(nan inf) float @_ZSt5floorf(float noundef nofpclass(nan inf) %0) #3 comdat {
  %2 = alloca float, align 4
  store float %0, ptr %2, align 4
  %3 = load float, ptr %2, align 4
  %4 = call fast float @llvm.floor.f32(float %3)
  ret float %4
}

; Function Attrs: mustprogress uwtable
define internal void @_ZN4ncnnL12cubic_coeffsEiiPiPfi(i32 noundef %0, i32 noundef %1, ptr noundef %2, ptr noundef %3, i32 noundef %4) #0 {
  %6 = alloca i32, align 4
  %7 = alloca i32, align 4
  %8 = alloca ptr, align 8
  %9 = alloca ptr, align 8
  %10 = alloca i32, align 4
  %11 = alloca double, align 8
  %12 = alloca i32, align 4
  %13 = alloca float, align 4
  %14 = alloca i32, align 4
  store i32 %0, ptr %6, align 4
  store i32 %1, ptr %7, align 4
  store ptr %2, ptr %8, align 8
  store ptr %3, ptr %9, align 8
  store i32 %4, ptr %10, align 4
  %15 = load i32, ptr %6, align 4
  %16 = sitofp i32 %15 to double
  %17 = load i32, ptr %7, align 4
  %18 = sitofp i32 %17 to double
  %19 = fdiv fast double %16, %18
  store double %19, ptr %11, align 8
  %20 = load i32, ptr %10, align 4
  %21 = icmp ne i32 %20, 0
  br i1 %21, label %22, label %30

22:                                               ; preds = %5
  %23 = load i32, ptr %6, align 4
  %24 = sub nsw i32 %23, 1
  %25 = sitofp i32 %24 to double
  %26 = load i32, ptr %7, align 4
  %27 = sub nsw i32 %26, 1
  %28 = sitofp i32 %27 to double
  %29 = fdiv fast double %25, %28
  store double %29, ptr %11, align 8
  br label %30

30:                                               ; preds = %22, %5
  store i32 0, ptr %12, align 4
  br label %31

31:                                               ; preds = %278, %30
  %32 = load i32, ptr %12, align 4
  %33 = load i32, ptr %7, align 4
  %34 = icmp slt i32 %32, %33
  br i1 %34, label %35, label %281

35:                                               ; preds = %31
  %36 = load i32, ptr %12, align 4
  %37 = sitofp i32 %36 to double
  %38 = fadd fast double %37, 5.000000e-01
  %39 = load double, ptr %11, align 8
  %40 = fmul fast double %38, %39
  %41 = fsub fast double %40, 5.000000e-01
  %42 = fptrunc double %41 to float
  store float %42, ptr %13, align 4
  %43 = load i32, ptr %10, align 4
  %44 = icmp ne i32 %43, 0
  br i1 %44, label %45, label %51

45:                                               ; preds = %35
  %46 = load i32, ptr %12, align 4
  %47 = sitofp i32 %46 to double
  %48 = load double, ptr %11, align 8
  %49 = fmul fast double %47, %48
  %50 = fptrunc double %49 to float
  store float %50, ptr %13, align 4
  br label %51

51:                                               ; preds = %45, %35
  %52 = load float, ptr %13, align 4
  %53 = call fast noundef nofpclass(nan inf) float @_ZSt5floorf(float noundef nofpclass(nan inf) %52)
  %54 = fptosi float %53 to i32
  store i32 %54, ptr %14, align 4
  %55 = load i32, ptr %14, align 4
  %56 = sitofp i32 %55 to float
  %57 = load float, ptr %13, align 4
  %58 = fsub fast float %57, %56
  store float %58, ptr %13, align 4
  %59 = load float, ptr %13, align 4
  %60 = load ptr, ptr %9, align 8
  %61 = load i32, ptr %12, align 4
  %62 = mul nsw i32 %61, 4
  %63 = sext i32 %62 to i64
  %64 = getelementptr inbounds float, ptr %60, i64 %63
  call void @_ZN4ncnnL17interpolate_cubicEfPf(float noundef nofpclass(nan inf) %59, ptr noundef %64)
  %65 = load i32, ptr %14, align 4
  %66 = icmp sle i32 %65, -1
  br i1 %66, label %67, label %107

67:                                               ; preds = %51
  store i32 1, ptr %14, align 4
  %68 = load ptr, ptr %9, align 8
  %69 = load i32, ptr %12, align 4
  %70 = mul nsw i32 %69, 4
  %71 = add nsw i32 %70, 3
  %72 = sext i32 %71 to i64
  %73 = getelementptr inbounds float, ptr %68, i64 %72
  %74 = load float, ptr %73, align 4
  %75 = fsub fast float 1.000000e+00, %74
  %76 = load ptr, ptr %9, align 8
  %77 = load i32, ptr %12, align 4
  %78 = mul nsw i32 %77, 4
  %79 = add nsw i32 %78, 0
  %80 = sext i32 %79 to i64
  %81 = getelementptr inbounds float, ptr %76, i64 %80
  store float %75, ptr %81, align 4
  %82 = load ptr, ptr %9, align 8
  %83 = load i32, ptr %12, align 4
  %84 = mul nsw i32 %83, 4
  %85 = add nsw i32 %84, 3
  %86 = sext i32 %85 to i64
  %87 = getelementptr inbounds float, ptr %82, i64 %86
  %88 = load float, ptr %87, align 4
  %89 = load ptr, ptr %9, align 8
  %90 = load i32, ptr %12, align 4
  %91 = mul nsw i32 %90, 4
  %92 = add nsw i32 %91, 1
  %93 = sext i32 %92 to i64
  %94 = getelementptr inbounds float, ptr %89, i64 %93
  store float %88, ptr %94, align 4
  %95 = load ptr, ptr %9, align 8
  %96 = load i32, ptr %12, align 4
  %97 = mul nsw i32 %96, 4
  %98 = add nsw i32 %97, 2
  %99 = sext i32 %98 to i64
  %100 = getelementptr inbounds float, ptr %95, i64 %99
  store float 0.000000e+00, ptr %100, align 4
  %101 = load ptr, ptr %9, align 8
  %102 = load i32, ptr %12, align 4
  %103 = mul nsw i32 %102, 4
  %104 = add nsw i32 %103, 3
  %105 = sext i32 %104 to i64
  %106 = getelementptr inbounds float, ptr %101, i64 %105
  store float 0.000000e+00, ptr %106, align 4
  br label %107

107:                                              ; preds = %67, %51
  %108 = load i32, ptr %14, align 4
  %109 = icmp eq i32 %108, 0
  br i1 %109, label %110, label %164

110:                                              ; preds = %107
  store i32 1, ptr %14, align 4
  %111 = load ptr, ptr %9, align 8
  %112 = load i32, ptr %12, align 4
  %113 = mul nsw i32 %112, 4
  %114 = add nsw i32 %113, 0
  %115 = sext i32 %114 to i64
  %116 = getelementptr inbounds float, ptr %111, i64 %115
  %117 = load float, ptr %116, align 4
  %118 = load ptr, ptr %9, align 8
  %119 = load i32, ptr %12, align 4
  %120 = mul nsw i32 %119, 4
  %121 = add nsw i32 %120, 1
  %122 = sext i32 %121 to i64
  %123 = getelementptr inbounds float, ptr %118, i64 %122
  %124 = load float, ptr %123, align 4
  %125 = fadd fast float %117, %124
  %126 = load ptr, ptr %9, align 8
  %127 = load i32, ptr %12, align 4
  %128 = mul nsw i32 %127, 4
  %129 = add nsw i32 %128, 0
  %130 = sext i32 %129 to i64
  %131 = getelementptr inbounds float, ptr %126, i64 %130
  store float %125, ptr %131, align 4
  %132 = load ptr, ptr %9, align 8
  %133 = load i32, ptr %12, align 4
  %134 = mul nsw i32 %133, 4
  %135 = add nsw i32 %134, 2
  %136 = sext i32 %135 to i64
  %137 = getelementptr inbounds float, ptr %132, i64 %136
  %138 = load float, ptr %137, align 4
  %139 = load ptr, ptr %9, align 8
  %140 = load i32, ptr %12, align 4
  %141 = mul nsw i32 %140, 4
  %142 = add nsw i32 %141, 1
  %143 = sext i32 %142 to i64
  %144 = getelementptr inbounds float, ptr %139, i64 %143
  store float %138, ptr %144, align 4
  %145 = load ptr, ptr %9, align 8
  %146 = load i32, ptr %12, align 4
  %147 = mul nsw i32 %146, 4
  %148 = add nsw i32 %147, 3
  %149 = sext i32 %148 to i64
  %150 = getelementptr inbounds float, ptr %145, i64 %149
  %151 = load float, ptr %150, align 4
  %152 = load ptr, ptr %9, align 8
  %153 = load i32, ptr %12, align 4
  %154 = mul nsw i32 %153, 4
  %155 = add nsw i32 %154, 2
  %156 = sext i32 %155 to i64
  %157 = getelementptr inbounds float, ptr %152, i64 %156
  store float %151, ptr %157, align 4
  %158 = load ptr, ptr %9, align 8
  %159 = load i32, ptr %12, align 4
  %160 = mul nsw i32 %159, 4
  %161 = add nsw i32 %160, 3
  %162 = sext i32 %161 to i64
  %163 = getelementptr inbounds float, ptr %158, i64 %162
  store float 0.000000e+00, ptr %163, align 4
  br label %164

164:                                              ; preds = %110, %107
  %165 = load i32, ptr %14, align 4
  %166 = load i32, ptr %6, align 4
  %167 = sub nsw i32 %166, 2
  %168 = icmp eq i32 %165, %167
  br i1 %168, label %169, label %225

169:                                              ; preds = %164
  %170 = load i32, ptr %6, align 4
  %171 = sub nsw i32 %170, 3
  store i32 %171, ptr %14, align 4
  %172 = load ptr, ptr %9, align 8
  %173 = load i32, ptr %12, align 4
  %174 = mul nsw i32 %173, 4
  %175 = add nsw i32 %174, 2
  %176 = sext i32 %175 to i64
  %177 = getelementptr inbounds float, ptr %172, i64 %176
  %178 = load float, ptr %177, align 4
  %179 = load ptr, ptr %9, align 8
  %180 = load i32, ptr %12, align 4
  %181 = mul nsw i32 %180, 4
  %182 = add nsw i32 %181, 3
  %183 = sext i32 %182 to i64
  %184 = getelementptr inbounds float, ptr %179, i64 %183
  %185 = load float, ptr %184, align 4
  %186 = fadd fast float %178, %185
  %187 = load ptr, ptr %9, align 8
  %188 = load i32, ptr %12, align 4
  %189 = mul nsw i32 %188, 4
  %190 = add nsw i32 %189, 3
  %191 = sext i32 %190 to i64
  %192 = getelementptr inbounds float, ptr %187, i64 %191
  store float %186, ptr %192, align 4
  %193 = load ptr, ptr %9, align 8
  %194 = load i32, ptr %12, align 4
  %195 = mul nsw i32 %194, 4
  %196 = add nsw i32 %195, 1
  %197 = sext i32 %196 to i64
  %198 = getelementptr inbounds float, ptr %193, i64 %197
  %199 = load float, ptr %198, align 4
  %200 = load ptr, ptr %9, align 8
  %201 = load i32, ptr %12, align 4
  %202 = mul nsw i32 %201, 4
  %203 = add nsw i32 %202, 2
  %204 = sext i32 %203 to i64
  %205 = getelementptr inbounds float, ptr %200, i64 %204
  store float %199, ptr %205, align 4
  %206 = load ptr, ptr %9, align 8
  %207 = load i32, ptr %12, align 4
  %208 = mul nsw i32 %207, 4
  %209 = add nsw i32 %208, 0
  %210 = sext i32 %209 to i64
  %211 = getelementptr inbounds float, ptr %206, i64 %210
  %212 = load float, ptr %211, align 4
  %213 = load ptr, ptr %9, align 8
  %214 = load i32, ptr %12, align 4
  %215 = mul nsw i32 %214, 4
  %216 = add nsw i32 %215, 1
  %217 = sext i32 %216 to i64
  %218 = getelementptr inbounds float, ptr %213, i64 %217
  store float %212, ptr %218, align 4
  %219 = load ptr, ptr %9, align 8
  %220 = load i32, ptr %12, align 4
  %221 = mul nsw i32 %220, 4
  %222 = add nsw i32 %221, 0
  %223 = sext i32 %222 to i64
  %224 = getelementptr inbounds float, ptr %219, i64 %223
  store float 0.000000e+00, ptr %224, align 4
  br label %225

225:                                              ; preds = %169, %164
  %226 = load i32, ptr %14, align 4
  %227 = load i32, ptr %6, align 4
  %228 = sub nsw i32 %227, 1
  %229 = icmp sge i32 %226, %228
  br i1 %229, label %230, label %272

230:                                              ; preds = %225
  %231 = load i32, ptr %6, align 4
  %232 = sub nsw i32 %231, 3
  store i32 %232, ptr %14, align 4
  %233 = load ptr, ptr %9, align 8
  %234 = load i32, ptr %12, align 4
  %235 = mul nsw i32 %234, 4
  %236 = add nsw i32 %235, 0
  %237 = sext i32 %236 to i64
  %238 = getelementptr inbounds float, ptr %233, i64 %237
  %239 = load float, ptr %238, align 4
  %240 = fsub fast float 1.000000e+00, %239
  %241 = load ptr, ptr %9, align 8
  %242 = load i32, ptr %12, align 4
  %243 = mul nsw i32 %242, 4
  %244 = add nsw i32 %243, 3
  %245 = sext i32 %244 to i64
  %246 = getelementptr inbounds float, ptr %241, i64 %245
  store float %240, ptr %246, align 4
  %247 = load ptr, ptr %9, align 8
  %248 = load i32, ptr %12, align 4
  %249 = mul nsw i32 %248, 4
  %250 = add nsw i32 %249, 0
  %251 = sext i32 %250 to i64
  %252 = getelementptr inbounds float, ptr %247, i64 %251
  %253 = load float, ptr %252, align 4
  %254 = load ptr, ptr %9, align 8
  %255 = load i32, ptr %12, align 4
  %256 = mul nsw i32 %255, 4
  %257 = add nsw i32 %256, 2
  %258 = sext i32 %257 to i64
  %259 = getelementptr inbounds float, ptr %254, i64 %258
  store float %253, ptr %259, align 4
  %260 = load ptr, ptr %9, align 8
  %261 = load i32, ptr %12, align 4
  %262 = mul nsw i32 %261, 4
  %263 = add nsw i32 %262, 1
  %264 = sext i32 %263 to i64
  %265 = getelementptr inbounds float, ptr %260, i64 %264
  store float 0.000000e+00, ptr %265, align 4
  %266 = load ptr, ptr %9, align 8
  %267 = load i32, ptr %12, align 4
  %268 = mul nsw i32 %267, 4
  %269 = add nsw i32 %268, 0
  %270 = sext i32 %269 to i64
  %271 = getelementptr inbounds float, ptr %266, i64 %270
  store float 0.000000e+00, ptr %271, align 4
  br label %272

272:                                              ; preds = %230, %225
  %273 = load i32, ptr %14, align 4
  %274 = load ptr, ptr %8, align 8
  %275 = load i32, ptr %12, align 4
  %276 = sext i32 %275 to i64
  %277 = getelementptr inbounds i32, ptr %274, i64 %276
  store i32 %273, ptr %277, align 4
  br label %278

278:                                              ; preds = %272
  %279 = load i32, ptr %12, align 4
  %280 = add nsw i32 %279, 1
  store i32 %280, ptr %12, align 4
  br label %31, !llvm.loop !142

281:                                              ; preds = %31
  ret void
}